target datalayout = "e-m:e-p270:32:32-p271:32:32-p272:64:64-i64:64-i128:128-f80:128-n8:16:32:64-S128"
target triple = "x86_64-pc-linux-gnu"

%struct.jvmtiExtensionEventInfo = type { i32, ptr, ptr, i32, ptr }
%class.GrowableArrayBase = type { i32, i32 }
%class.GrowableArrayView.2 = type { %class.GrowableArrayBase, ptr }

@_ZN15JvmtiExtensions11_ext_eventsE = hidden global ptr null, align 8
@g_assert_poison = external global ptr, align 8
@.str.21 = private unnamed_addr constant [44 x i8] c"src/hotspot/share/prims/jvmtiExtensions.cpp\00", align 1
@.str.23 = private unnamed_addr constant [22 x i8] c"registration not done\00", align 1
@.str.24 = private unnamed_addr constant [41 x i8] c"guarantee(_ext_events != nullptr) failed\00", align 1

; Function Attrs: mustprogress nounwind uwtable
define linkonce_odr hidden noundef nonnull align 8 dereferenceable(8) ptr @_ZN17GrowableArrayViewIP23jvmtiExtensionEventInfoE2atEi(ptr noundef nonnull align 8 dereferenceable(16) %0, i32 noundef %1) #1 comdat align 2 {
  %3 = alloca ptr, align 8
  %4 = alloca i32, align 4
  store ptr %0, ptr %3, align 8
  store i32 %1, ptr %4, align 4
  %5 = load ptr, ptr %3, align 8
  %6 = getelementptr inbounds %class.GrowableArrayView.2, ptr %5, i32 0, i32 1
  %7 = load ptr, ptr %6, align 8
  %8 = load i32, ptr %4, align 4
  %9 = sext i32 %8 to i64
  %10 = getelementptr inbounds ptr, ptr %7, i64 %9
  ret ptr %10
}

; Function Attrs: mustprogress nounwind uwtable
define linkonce_odr hidden noundef i32 @_ZNK17GrowableArrayBase6lengthEv(ptr noundef nonnull align 4 dereferenceable(8) %0) #1 comdat align 2 {
  %2 = alloca ptr, align 8
  store ptr %0, ptr %2, align 8
  %3 = load ptr, ptr %2, align 8
  %4 = getelementptr inbounds %class.GrowableArrayBase, ptr %3, i32 0, i32 0
  %5 = load i32, ptr %4, align 4
  ret i32 %5
}

; Function Attrs: mustprogress nounwind uwtable
define hidden noundef i32 @_ZN15JvmtiExtensions18set_event_callbackEP8JvmtiEnviPFvP9_jvmtiEnvzE(ptr noundef %0, i32 noundef %1, ptr noundef %2) #1 align 2 {
  %4 = alloca i32, align 4
  %5 = alloca ptr, align 8
  %6 = alloca i32, align 4
  %7 = alloca ptr, align 8
  %8 = alloca ptr, align 8
  %9 = alloca i32, align 4
  store ptr %0, ptr %5, align 8
  store i32 %1, ptr %6, align 4
  store ptr %2, ptr %7, align 8
  br label %10

10:                                               ; preds = %3
  %11 = load ptr, ptr @_ZN15JvmtiExtensions11_ext_eventsE, align 8
  %12 = icmp ne ptr %11, null
  br i1 %12, label %15, label %13

13:                                               ; preds = %10
  %14 = load ptr, ptr @g_assert_poison, align 8
  store i8 88, ptr %14, align 1
  call void (ptr, i32, ptr, ptr, ...) @_Z15report_vm_errorPKciS0_S0_z(ptr noundef @.str.21, i32 noundef 437, ptr noundef @.str.24, ptr noundef @.str.23) #10
  unreachable

15:                                               ; preds = %10
  br label %16

16:                                               ; preds = %15
  store ptr null, ptr %8, align 8
  %17 = load ptr, ptr @_ZN15JvmtiExtensions11_ext_eventsE, align 8
  %18 = icmp ne ptr %17, null
  br i1 %18, label %19, label %44

19:                                               ; preds = %16
  store i32 0, ptr %9, align 4
  br label %20

20:                                               ; preds = %40, %19
  %21 = load i32, ptr %9, align 4
  %22 = load ptr, ptr @_ZN15JvmtiExtensions11_ext_eventsE, align 8
  %23 = call noundef i32 @_ZNK17GrowableArrayBase6lengthEv(ptr noundef nonnull align 4 dereferenceable(8) %22)
  %24 = icmp slt i32 %21, %23
  br i1 %24, label %25, label %43

25:                                               ; preds = %20
  %26 = load ptr, ptr @_ZN15JvmtiExtensions11_ext_eventsE, align 8
  %27 = load i32, ptr %9, align 4
  %28 = call noundef nonnull align 8 dereferenceable(8) ptr @_ZN17GrowableArrayViewIP23jvmtiExtensionEventInfoE2atEi(ptr noundef nonnull align 8 dereferenceable(16) %26, i32 noundef %27)
  %29 = load ptr, ptr %28, align 8
  %30 = getelementptr inbounds %struct.jvmtiExtensionEventInfo, ptr %29, i32 0, i32 0
  %31 = load i32, ptr %30, align 8
  %32 = load i32, ptr %6, align 4
  %33 = icmp eq i32 %31, %32
  br i1 %33, label %34, label %39

34:                                               ; preds = %25
  %35 = load ptr, ptr @_ZN15JvmtiExtensions11_ext_eventsE, align 8
  %36 = load i32, ptr %9, align 4
  %37 = call noundef nonnull align 8 dereferenceable(8) ptr @_ZN17GrowableArrayViewIP23jvmtiExtensionEventInfoE2atEi(ptr noundef nonnull align 8 dereferenceable(16) %35, i32 noundef %36)
  %38 = load ptr, ptr %37, align 8
  store ptr %38, ptr %8, align 8
  br label %43

39:                                               ; preds = %25
  br label %40

40:                                               ; preds = %39
  %41 = load i32, ptr %9, align 4
  %42 = add nsw i32 %41, 1
  store i32 %42, ptr %9, align 4
  br label %20, !llvm.loop !11

43:                                               ; preds = %34, %20
  br label %44

44:                                               ; preds = %43, %16
  %45 = load ptr, ptr %8, align 8
  %46 = icmp eq ptr %45, null
  br i1 %46, label %47, label %48

47:                                               ; preds = %44
  store i32 103, ptr %4, align 4
  br label %52

48:                                               ; preds = %44
  %49 = load ptr, ptr %5, align 8
  %50 = load i32, ptr %6, align 4
  %51 = load ptr, ptr %7, align 8
  call void @_ZN20JvmtiEventController28set_extension_event_callbackEP12JvmtiEnvBaseiPFvP9_jvmtiEnvzE(ptr noundef %49, i32 noundef %50, ptr noundef %51)
  store i32 0, ptr %4, align 4
  br label %52

52:                                               ; preds = %48, %47
  %53 = load i32, ptr %4, align 4
  ret i32 %53
}