; Function Attrs: mustprogress nounwind uwtable
define hidden noundef range(i32 0, 104) i32 @_ZN15JvmtiExtensions18set_event_callbackEP8JvmtiEnviPFvP9_jvmtiEnvzE(ptr noundef %0, i32 noundef %1, ptr noundef %2) local_unnamed_addr #0 align 2 {
  %4 = load ptr, ptr @_ZN15JvmtiExtensions11_ext_eventsE, align 8
  %.not = icmp eq ptr %4, null
  br i1 %.not, label %9, label %.preheader

.preheader:                                       ; preds = %3
  %5 = load i32, ptr %4, align 4
  %6 = icmp sgt i32 %5, 0
  br i1 %6, label %.lr.ph, label %.critedge

.lr.ph:                                           ; preds = %.preheader
  %7 = getelementptr inbounds i8, ptr %4, i64 8
  %8 = load ptr, ptr %7, align 8
  %wide.trip.count = zext nneg i32 %5 to i64
  br label %12

9:                                                ; preds = %3
  %10 = load ptr, ptr @g_assert_poison, align 8
  store i8 88, ptr %10, align 1
  tail call void (ptr, i32, ptr, ptr, ...) @_Z15report_vm_errorPKciS0_S0_z(ptr noundef nonnull @.str.21, i32 noundef 437, ptr noundef nonnull @.str.24, ptr noundef nonnull @.str.23) #12
  unreachable

11:                                               ; preds = %12
  %indvars.iv.next = add nuw nsw i64 %indvars.iv, 1
  %exitcond.not = icmp eq i64 %indvars.iv.next, %wide.trip.count
  br i1 %exitcond.not, label %.critedge, label %12, !llvm.loop !13

12:                                               ; preds = %.lr.ph, %11
  %indvars.iv = phi i64 [ 0, %.lr.ph ], [ %indvars.iv.next, %11 ]
  %13 = getelementptr inbounds ptr, ptr %8, i64 %indvars.iv
  %14 = load ptr, ptr %13, align 8
  %15 = load i32, ptr %14, align 8
  %16 = icmp eq i32 %15, %1
  br i1 %16, label %17, label %11

17:                                               ; preds = %12
  tail call void @_ZN20JvmtiEventController28set_extension_event_callbackEP12JvmtiEnvBaseiPFvP9_jvmtiEnvzE(ptr noundef %0, i32 noundef %1, ptr noundef %2) #11
  br label %.critedge

.critedge:                                        ; preds = %11, %.preheader, %17
  %.010 = phi i32 [ 0, %17 ], [ 103, %.preheader ], [ 103, %11 ]
  ret i32 %.010
}